Certificate:
    Data:
        Version: 1 (0x0)
        Serial Number: 1 (0x1)
    Signature Algorithm: sha256WithRSAEncryption
        Issuer: C=VA, ST=Valoran, L=Zaun, O=Chemtech, OU=Chemtech/emailAddress=silco@gmail.com
        Validity
            Not Before: Mar 30 19:36:49 2022 GMT
            Not After : Mar 30 19:36:49 2023 GMT
        Subject: C=VA, ST=VA, O=Hextech, OU=Hextech, CN=Jayce
        Subject Public Key Info:
            Public Key Algorithm: rsaEncryption
                Public-Key: (2048 bit)
                Modulus:
                    00:dd:1b:0f:26:30:93:e7:61:2d:bf:ed:35:90:70:
                    78:13:ce:c0:39:9d:2d:23:81:41:34:50:ef:9e:67:
                    60:be:10:f3:a8:89:f7:32:d2:f4:e2:5c:85:e7:2b:
                    a7:0f:bb:76:7f:b8:49:dc:74:c1:be:67:13:1b:c2:
                    26:e9:9c:09:41:4d:8c:95:c5:5b:df:3b:c7:ed:da:
                    ff:c4:57:fc:cc:96:67:c6:b4:8a:7d:32:65:b3:b6:
                    b8:13:8c:db:10:f5:21:e1:57:e3:57:db:42:f2:ff:
                    c0:46:86:c9:4d:b1:10:0d:e5:fc:00:2a:1d:1b:1d:
                    44:fc:af:6a:14:ef:3b:a6:e7:b1:9b:7f:f3:d1:12:
                    ca:f4:ce:02:84:d4:25:26:d0:41:2d:53:45:8e:66:
                    66:5e:60:52:ba:b9:fe:a7:42:b8:13:69:9e:46:6c:
                    e7:37:f9:91:e9:dd:13:2c:b3:00:14:c3:79:e8:40:
                    43:95:ed:0d:ef:1f:a2:a9:5d:5a:9c:07:e2:52:42:
                    6c:ab:85:93:c1:e3:80:23:eb:4d:1a:18:89:e5:e8:
                    ec:f7:40:8c:00:12:68:c5:a6:1d:14:1f:53:07:c0:
                    ef:1b:99:5b:10:80:d8:53:3d:5b:5f:d2:a3:24:35:
                    65:fa:98:90:72:a3:63:4d:f5:93:50:dd:f6:45:94:
                    92:b5
                Exponent: 65537 (0x10001)
    Signature Algorithm: sha256WithRSAEncryption
         33:f9:69:08:6d:0d:51:3e:45:e1:18:f7:ec:ce:34:9b:22:93:
         7f:aa:fc:c9:f0:0b:46:3d:c2:90:fc:15:42:95:bc:ea:9f:76:
         56:27:ea:07:15:f8:a9:e1:c3:b6:1f:44:c2:77:f4:91:ea:ce:
         3c:cf:57:a3:5b:cd:92:81:d6:a0:5d:99:fe:34:24:d3:a8:46:
         a4:3a:bd:0b:98:dc:47:c7:25:6d:13:1e:eb:fa:26:8d:34:1d:
         b2:67:a6:18:4d:68:aa:e9:8a:2f:4d:1d:97:0e:64:a3:04:e1:
         fb:e9:69:d3:3b:64:51:bf:6b:42:15:48:53:f0:94:67:bb:f9:
         ea:2b:7a:0f:86:64:0e:60:79:18:cd:ea:23:3c:6a:d9:e1:e7:
         02:7d:5d:3e:d5:1d:43:5c:45:f9:35:58:e7:4f:19:bf:40:04:
         c9:c7:c4:19:a3:dd:18:2f:0b:c1:0e:6e:e6:0c:58:fb:04:d4:
         7c:82:68:b7:15:44:16:75:4f:75:a3:26:51:a0:70:fb:93:29:
         4e:02:be:12:87:70:ef:10:09:cf:81:6c:87:47:73:7f:a2:45:
         ed:dc:d8:29:ad:78:91:14:f1:20:85:b3:80:c6:54:8d:00:a4:
         40:01:1a:42:97:e9:0f:11:c3:4f:4d:07:f1:ba:93:f0:e2:34:
         f3:88:0d:a7
-----BEGIN CERTIFICATE-----
MIIDNjCCAh4CAQEwDQYJKoZIhvcNAQELBQAwdDELMAkGA1UEBhMCVkExEDAOBgNV
BAgMB1ZhbG9yYW4xDTALBgNVBAcMBFphdW4xETAPBgNVBAoMCENoZW10ZWNoMREw
DwYDVQQLDAhDaGVtdGVjaDEeMBwGCSqGSIb3DQEJARYPc2lsY29AZ21haWwuY29t
MB4XDTIyMDMzMDE5MzY0OVoXDTIzMDMzMDE5MzY0OVowTjELMAkGA1UEBhMCVkEx
CzAJBgNVBAgMAlZBMRAwDgYDVQQKDAdIZXh0ZWNoMRAwDgYDVQQLDAdIZXh0ZWNo
MQ4wDAYDVQQDDAVKYXljZTCCASIwDQYJKoZIhvcNAQEBBQADggEPADCCAQoCggEB
AN0bDyYwk+dhLb/tNZBweBPOwDmdLSOBQTRQ755nYL4Q86iJ9zLS9OJchecrpw+7
dn+4Sdx0wb5nExvCJumcCUFNjJXFW987x+3a/8RX/MyWZ8a0in0yZbO2uBOM2xD1
IeFX41fbQvL/wEaGyU2xEA3l/AAqHRsdRPyvahTvO6bnsZt/89ESyvTOAoTUJSbQ
QS1TRY5mZl5gUrq5/qdCuBNpnkZs5zf5kendEyyzABTDeehAQ5XtDe8foqldWpwH
4lJCbKuFk8HjgCPrTRoYieXo7PdAjAASaMWmHRQfUwfA7xuZWxCA2FM9W1/SoyQ1
ZfqYkHKjY031k1Dd9kWUkrUCAwEAATANBgkqhkiG9w0BAQsFAAOCAQEAM/lpCG0N
UT5F4Rj37M40myKTf6r8yfALRj3CkPwVQpW86p92VifqBxX4qeHDth9Ewnf0kerO
PM9Xo1vNkoHWoF2Z/jQk06hGpDq9C5jcR8clbRMe6/omjTQdsmemGE1oqumKL00d
lw5kowTh++lp0ztkUb9rQhVIU/CUZ7v56it6D4ZkDmB5GM3qIzxq2eHnAn1dPtUd
Q1xF+TVY508Zv0AEycfEGaPdGC8LwQ5u5gxY+wTUfIJotxVEFnVPdaMmUaBw+5Mp
TgK+Eodw7xAJz4Fsh0dzf6JF7dzYKa14kRTxIIWzgMZUjQCkQAEaQpfpDxHDT00H
8bqT8OI084gNpw==
-----END CERTIFICATE-----
